target datalayout = "e-m:e-p270:32:32-p271:32:32-p272:64:64-i64:64-i128:128-f80:128-n8:16:32:64-S128"
target triple = "x86_64-pc-linux-gnu"

@cmsysMD5_DigestToHex.hex = internal constant [16 x i8] c"0123456789abcdef", align 16

; Function Attrs: nounwind uwtable
define dso_local void @cmsysMD5_DigestToHex(ptr noundef %0, ptr noundef %1) #0 {
  %3 = alloca ptr, align 8
  %4 = alloca ptr, align 8
  %5 = alloca ptr, align 8
  %6 = alloca i32, align 4
  store ptr %0, ptr %3, align 8, !tbaa !13
  store ptr %1, ptr %4, align 8, !tbaa !13
  call void @llvm.lifetime.start.p0(i64 8, ptr %5) #6
  %7 = load ptr, ptr %4, align 8, !tbaa !13
  store ptr %7, ptr %5, align 8, !tbaa !13
  call void @llvm.lifetime.start.p0(i64 4, ptr %6) #6
  store i32 0, ptr %6, align 4, !tbaa !11
  br label %8

8:                                                ; preds = %36, %2
  %9 = load i32, ptr %6, align 4, !tbaa !11
  %10 = icmp slt i32 %9, 16
  br i1 %10, label %11, label %39

11:                                               ; preds = %8
  %12 = load ptr, ptr %3, align 8, !tbaa !13
  %13 = load i32, ptr %6, align 4, !tbaa !11
  %14 = sext i32 %13 to i64
  %15 = getelementptr inbounds i8, ptr %12, i64 %14
  %16 = load i8, ptr %15, align 1, !tbaa !19
  %17 = zext i8 %16 to i32
  %18 = ashr i32 %17, 4
  %19 = sext i32 %18 to i64
  %20 = getelementptr inbounds [16 x i8], ptr @cmsysMD5_DigestToHex.hex, i64 0, i64 %19
  %21 = load i8, ptr %20, align 1, !tbaa !19
  %22 = load ptr, ptr %5, align 8, !tbaa !13
  %23 = getelementptr inbounds nuw i8, ptr %22, i32 1
  store ptr %23, ptr %5, align 8, !tbaa !13
  store i8 %21, ptr %22, align 1, !tbaa !19
  %24 = load ptr, ptr %3, align 8, !tbaa !13
  %25 = load i32, ptr %6, align 4, !tbaa !11
  %26 = sext i32 %25 to i64
  %27 = getelementptr inbounds i8, ptr %24, i64 %26
  %28 = load i8, ptr %27, align 1, !tbaa !19
  %29 = zext i8 %28 to i32
  %30 = and i32 %29, 15
  %31 = sext i32 %30 to i64
  %32 = getelementptr inbounds [16 x i8], ptr @cmsysMD5_DigestToHex.hex, i64 0, i64 %31
  %33 = load i8, ptr %32, align 1, !tbaa !19
  %34 = load ptr, ptr %5, align 8, !tbaa !13
  %35 = getelementptr inbounds nuw i8, ptr %34, i32 1
  store ptr %35, ptr %5, align 8, !tbaa !13
  store i8 %33, ptr %34, align 1, !tbaa !19
  br label %36

36:                                               ; preds = %11
  %37 = load i32, ptr %6, align 4, !tbaa !11
  %38 = add nsw i32 %37, 1
  store i32 %38, ptr %6, align 4, !tbaa !11
  br label %8, !llvm.loop !22

39:                                               ; preds = %8
  call void @llvm.lifetime.end.p0(i64 4, ptr %6) #6
  call void @llvm.lifetime.end.p0(i64 8, ptr %5) #6
  ret void
}