; Function Attrs: nofree norecurse nosync nounwind memory(argmem: readwrite) uwtable
define dso_local void @cmsysMD5_DigestToHex(ptr noundef readonly captures(none) %0, ptr noundef writeonly captures(none) %1) local_unnamed_addr #9 {
  br label %3

3:                                                ; preds = %2, %3
  %indvars.iv = phi i64 [ 0, %2 ], [ %indvars.iv.next, %3 ]
  %.089 = phi ptr [ %1, %2 ], [ %16, %3 ]
  %4 = getelementptr inbounds nuw i8, ptr %0, i64 %indvars.iv
  %5 = load i8, ptr %4, align 1, !tbaa !10
  %6 = lshr i8 %5, 4
  %7 = zext nneg i8 %6 to i64
  %8 = getelementptr inbounds nuw [16 x i8], ptr @cmsysMD5_DigestToHex.hex, i64 0, i64 %7
  %9 = load i8, ptr %8, align 1, !tbaa !10
  %10 = getelementptr inbounds nuw i8, ptr %.089, i64 1
  store i8 %9, ptr %.089, align 1, !tbaa !10
  %11 = load i8, ptr %4, align 1, !tbaa !10
  %12 = and i8 %11, 15
  %13 = zext nneg i8 %12 to i64
  %14 = getelementptr inbounds nuw [16 x i8], ptr @cmsysMD5_DigestToHex.hex, i64 0, i64 %13
  %15 = load i8, ptr %14, align 1, !tbaa !10
  %16 = getelementptr inbounds nuw i8, ptr %.089, i64 2
  store i8 %15, ptr %10, align 1, !tbaa !10
  %indvars.iv.next = add nuw nsw i64 %indvars.iv, 1
  %exitcond.not = icmp eq i64 %indvars.iv.next, 16
  br i1 %exitcond.not, label %17, label %3, !llvm.loop !13

17:                                               ; preds = %3
  ret void
}